; Function Attrs: mustprogress nofree norecurse nosync nounwind willreturn memory(read, argmem: readwrite, inaccessiblemem: none) uwtable
define void @_ZNK10OpenSubdiv6v3_6_03Far10PatchTable23GetPatchArrayDescriptorEi(ptr dead_on_unwind noalias nocapture writable writeonly sret(%"class.OpenSubdiv::v3_6_0::Far::PatchDescriptor") align 4 %0, ptr nocapture noundef nonnull readonly align 8 dereferenceable(273) %1, i32 noundef %2) local_unnamed_addr #4 align 2 {
  %4 = getelementptr inbounds nuw i8, ptr %1, i64 8
  %5 = sext i32 %2 to i64
  %6 = load ptr, ptr %4, align 8
  %7 = getelementptr inbounds %"struct.OpenSubdiv::v3_6_0::Far::PatchTable::PatchArray", ptr %6, i64 %5
  %8 = load i32, ptr %7, align 4
  store i32 %8, ptr %0, align 4
  ret void
}